MPASM 5.84                          MAIN.ASM   5-29-2024  9:33:58         PAGE  1


LOC  OBJECT CODE     LINE SOURCE TEXT
  VALUE

                      00001 ;CONFIGURACIONES INICIALES
Warning[205]: Found directive in column 1. (__CONFIG)
2007   3FE1           00002 __CONFIG _XT_OSC & _WDT_OFF & _PWRTE_ON & _CP_OFF
                      00003 
Warning[205]: Found directive in column 1. (LIST)
                      00004 LIST P = 16F628A            ;INDICAMOS EL PROCESADOR A USAR
                      00005 
Warning[205]: Found directive in column 1. (INCLUDE)
                      00006 INCLUDE <P16F628A.INC>      ;AGREGAMOS LA LIBRERÍA A USAR
                      00001         LIST
                      00002 
                      00003 ;==========================================================================
                      00004 ; Build date : Mar 17 2019
                      00005 ;  MPASM PIC16F628A processor include
                      00006 ; 
                      00007 ;  (c) Copyright 1999-2019 Microchip Technology, All rights reserved
                      00008 ;==========================================================================
                      00009 
                      00386         LIST
                      00007     
                      00008 
Warning[205]: Found directive in column 1. (ORG)
                      00009 ORG     0x00                ;INICIO DEL PROGRAMA
                      00010 
0000   1683           00011     BSF STATUS,5            ;CAMBIAR AL BANCO 1
Message[302]: Register in operand not in bank 0.  Ensure that bank bits are correct.
0001   1406           00012     BSF TRISB,0             ;Asignamos entrada
Message[302]: Register in operand not in bank 0.  Ensure that bank bits are correct.
0002   1486           00013     BSF TRISB,1             ;Asignamos entrada
Message[302]: Register in operand not in bank 0.  Ensure that bank bits are correct.
0003   1506           00014     BSF TRISB,2             ;Asignamos entrada
Message[302]: Register in operand not in bank 0.  Ensure that bank bits are correct.
0004   1586           00015     BSF TRISB,3             ;Asignamos entrada
Message[302]: Register in operand not in bank 0.  Ensure that bank bits are correct.
0005   0185           00016     CLRF TRISA              ;Configuramos los pines RA0-RA7 como salidas, limpiamos esos puertos
0006   1283           00017     BCF STATUS, RP0         ;Regresamos al banco 0
                      00018     
Warning[207]: Found label after column 1. (MAIN)
0007                  00019     MAIN:
                      00020     ;ELEGIR CASO (MATEMATICO = 1, LOGICO = 0)
0007   1806           00021         BTFSC PORTB,RB0
0008   2???           00022             GOTO CASO_MATEMATICO
0009   2???           00023             GOTO CASO_LOGICO
                      00024     ;CASO 1
                      00025     ;ELEGIR OPERACION (SUMA = 0, RESTA = 1) 
Warning[207]: Found label after column 1. (CASO_MATEMATICO)
000A                  00026     CASO_MATEMATICO
000A   1886           00027         BTFSC PORTB,RB1
000B   2???           00028             GOTO RESTA
000C   2???           00029             GOTO SUMA
                      00030             
                      00031     ;TENEMOS DOS OPCIONES DEPENDIENDO DE LA ENTRADA C
                      00032     ; C = 1 --> RESTA 1
MPASM 5.84                          MAIN.ASM   5-29-2024  9:33:58         PAGE  2


LOC  OBJECT CODE     LINE SOURCE TEXT
  VALUE

                      00033     ; C = 0 --> RESTA 0
Warning[207]: Found label after column 1. (RESTA)
000D                  00034     RESTA
000D   1906           00035         BTFSC PORTB,RB2
000E   2???           00036             GOTO RESTA_1
000F   2???           00037             GOTO RESTA_0
                      00038             
Warning[207]: Found label after column 1. (RESTA_1)
0010                  00039     RESTA_1
0010   1986           00040         BTFSC PORTB,RB3
0011   2???           00041             CALL APAGAR_LEDS
0012   0000           00042             NOP
0013   1D86           00043         BTFSS PORTB,RB3   
0014   2???           00044             CALL ENCENDER_F
0015   0000           00045             NOP
0016   2???           00046         GOTO MAIN
                      00047         
Warning[207]: Found label after column 1. (RESTA_0)
0017                  00048     RESTA_0
0017   1986           00049         BTFSC PORTB,RB3
0018   2???           00050             CALL ENCENDER_LEDS
0019   2???           00051             CALL APAGAR_LEDS
001A   2???           00052         GOTO MAIN
                      00053         
                      00054     ;TENEMOS DOS OPCIONES DEPENDIENDO DE LA ENTRADA C
                      00055     ; C = 1 --> SUMA 1
                      00056     ; C = 0 --> SUMA 0
Warning[207]: Found label after column 1. (SUMA)
001B                  00057     SUMA
001B   1906           00058         BTFSC PORTB,RB2
001C   2???           00059             GOTO SUMA_1
001D   2???           00060             GOTO SUMA_0
                      00061         
Warning[207]: Found label after column 1. (SUMA_1)
001E                  00062     SUMA_1
001E   1986           00063         BTFSC PORTB,RB3
001F   2???           00064             CALL ENCENDER_E
0020   0000           00065             NOP
0021   1D86           00066         BTFSS PORTB,RB3
0022   2???           00067             CALL ENCENDER_F
0023   0000           00068             NOP
0024   2???           00069         GOTO MAIN
                      00070     
Warning[207]: Found label after column 1. (SUMA_0)
0025                  00071     SUMA_0
0025   1986           00072         BTFSC PORTB,RB3
0026   2???           00073             CALL ENCENDER_F
0027   2???           00074             CALL APAGAR_LEDS
0028   2???           00075         GOTO MAIN
                      00076 
                      00077         
                      00078     ;CASO 2
                      00079     ;ELEGIR OPERACION (OR = 0, AND = 1)     
MPASM 5.84                          MAIN.ASM   5-29-2024  9:33:58         PAGE  3


LOC  OBJECT CODE     LINE SOURCE TEXT
  VALUE

Warning[207]: Found label after column 1. (CASO_LOGICO)
0029                  00080     CASO_LOGICO
0029   1886           00081         BTFSC PORTB,RB1
002A   2???           00082             GOTO OR
002B   2???           00083             GOTO AND
                      00084             
                      00085     ;TENEMOS DOS OPCIONES DEPENDIENDO DE LA ENTRADA C
                      00086     ; C = 1 --> OR 1
                      00087     ; C = 0 --> OR 0
Warning[207]: Found label after column 1. (OR)
002C                  00088     OR
002C   1906           00089         BTFSC PORTB,RB2
002D   2???           00090             GOTO OR_1
002E   2???           00091             GOTO OR_0
                      00092             
Warning[207]: Found label after column 1. (OR_1)
002F                  00093     OR_1
002F   2???           00094         CALL ENCENDER_F
0030   2???           00095         GOTO MAIN
                      00096     
Warning[207]: Found label after column 1. (OR_0)
0031                  00097     OR_0
0031   1986           00098         BTFSC PORTB,RB3
0032   2???           00099             CALL ENCENDER_F
0033   2???           00100             CALL APAGAR_LEDS
0034   2???           00101         GOTO MAIN
                      00102             
                      00103     ;TENEMOS DOS OPCIONES DEPENDIENDO DE LA ENTRADA C
                      00104     ; C = 1 --> AND 1
                      00105     ; C = 0 --> AND 0
Warning[207]: Found label after column 1. (AND)
0035                  00106     AND 
0035   1906           00107         BTFSC PORTB,RB2
0036   2???           00108             GOTO AND_1
0037   2???           00109             GOTO AND_0
                      00110             
Warning[207]: Found label after column 1. (AND_1)
0038                  00111     AND_1
0038   1986           00112         BTFSC PORTB,RB3
0039   2???           00113             CALL ENCENDER_F
003A   2???           00114             CALL APAGAR_LEDS
003B   2???           00115         GOTO MAIN
                      00116    
Warning[207]: Found label after column 1. (AND_0)
003C                  00117     AND_0
003C   2???           00118         CALL APAGAR_LEDS
003D   2???           00119         GOTO MAIN
                      00120         
                      00121         
                      00122     ;SUBRUTINAS PARA LOS 4 CASOS DE SALIDAS QUE TENEMOS
                      00123     
                      00124     ; 0 0
Warning[207]: Found label after column 1. (APAGAR_LEDS)
MPASM 5.84                          MAIN.ASM   5-29-2024  9:33:58         PAGE  4


LOC  OBJECT CODE     LINE SOURCE TEXT
  VALUE

003E                  00125     APAGAR_LEDS
003E   1005           00126         BCF PORTA,RA0
003F   1085           00127         BCF PORTA,RA1
0040   0008           00128     RETURN 
                      00129     
                      00130     ; 1 1
Warning[207]: Found label after column 1. (ENCENDER_LEDS)
0041                  00131     ENCENDER_LEDS
0041   1405           00132         BSF PORTA,RA0
0042   1485           00133         BSF PORTA,RA1
0043   0008           00134     RETURN
                      00135     
                      00136     ; 0 1
Warning[207]: Found label after column 1. (ENCENDER_F)
0044                  00137     ENCENDER_F
0044   1D86           00138         BTFSS PORTB,RB3
0045   0008           00139             return
0046   0000           00140             NOP
0047   1005           00141         BCF PORTA,RA0
0048   1485           00142         BSF PORTA,RA1
0049   0008           00143     RETURN
                      00144     
                      00145     ; 1 0
Warning[207]: Found label after column 1. (ENCENDER_E)
004A                  00146     ENCENDER_E
004A   1D86           00147         BTFSS PORTB,RB3
004B   0008           00148             return
004C   0000           00149             NOP
004D   1405           00150         BSF PORTA,RA0
004E   1085           00151         BCF PORTA,RA1
004F   0008           00152     RETURN
                      00153     
Warning[205]: Found directive in column 1. (END)
3FE1                  00154 END
MPASM 5.84                          MAIN.ASM   5-29-2024  9:33:58         PAGE  5


SYMBOL TABLE
  LABEL                             VALUE 

ADDEN                             00000003
ADEN                              00000003
AND                               00000035
AND_0                             0000003C
AND_1                             00000038
APAGAR_LEDS                       0000003E
BRGH                              00000002
C                                 00000000
C1INV                             00000004
C1OUT                             00000006
C2INV                             00000005
C2OUT                             00000007
CASO_LOGICO                       00000029
CASO_MATEMATICO                   0000000A
CCP1CON                           00000017
CCP1IE                            00000002
CCP1IF                            00000002
CCP1M0                            00000000
CCP1M1                            00000001
CCP1M2                            00000002
CCP1M3                            00000003
CCP1X                             00000005
CCP1Y                             00000004
CCPR1                             00000015
CCPR1H                            00000016
CCPR1L                            00000015
CIS                               00000003
CM0                               00000000
CM1                               00000001
CM2                               00000002
CMCON                             0000001F
CMIE                              00000006
CMIF                              00000006
CREN                              00000004
CSRC                              00000007
DATA_CP_OFF                       00003FFF
DATA_CP_ON                        00003EFF
DC                                00000001
EEADR                             0000009B
EECON1                            0000009C
EECON2                            0000009D
EEDATA                            0000009A
EEIE                              00000007
EEIF                              00000007
ENCENDER_E                        0000004A
ENCENDER_F                        00000044
ENCENDER_LEDS                     00000041
F                                 00000001
FERR                              00000002
FSR                               00000004
GIE                               00000007
INDF                              00000000
INTCON                            0000000B
MPASM 5.84                          MAIN.ASM   5-29-2024  9:33:58         PAGE  6


SYMBOL TABLE
  LABEL                             VALUE 

INTE                              00000004
INTEDG                            00000006
INTF                              00000001
IRP                               00000007
MAIN                              00000007
NOT_BO                            00000000
NOT_BOD                           00000000
NOT_BOR                           00000000
NOT_PD                            00000003
NOT_POR                           00000001
NOT_RBPU                          00000007
NOT_T1SYNC                        00000002
NOT_TO                            00000004
OERR                              00000001
OPTION_REG                        00000081
OR                                0000002C
OR_0                              00000031
OR_1                              0000002F
OSCF                              00000003
PCL                               00000002
PCLATH                            0000000A
PCON                              0000008E
PEIE                              00000006
PIE1                              0000008C
PIR1                              0000000C
PORTA                             00000005
PORTB                             00000006
PR2                               00000092
PS0                               00000000
PS1                               00000001
PS2                               00000002
PSA                               00000003
RA0                               00000000
RA1                               00000001
RA2                               00000002
RA3                               00000003
RA4                               00000004
RA5                               00000005
RA6                               00000006
RA7                               00000007
RB0                               00000000
RB1                               00000001
RB2                               00000002
RB3                               00000003
RB4                               00000004
RB5                               00000005
RB6                               00000006
RB7                               00000007
RBIE                              00000003
RBIF                              00000000
RCIE                              00000005
RCIF                              00000005
RCREG                             0000001A
MPASM 5.84                          MAIN.ASM   5-29-2024  9:33:58         PAGE  7


SYMBOL TABLE
  LABEL                             VALUE 

RCSTA                             00000018
RD                                00000000
RESTA                             0000000D
RESTA_0                           00000017
RESTA_1                           00000010
RP0                               00000005
RP1                               00000006
RX9                               00000006
RX9D                              00000000
SPBRG                             00000099
SPEN                              00000007
SREN                              00000005
STATUS                            00000003
SUMA                              0000001B
SUMA_0                            00000025
SUMA_1                            0000001E
SYNC                              00000004
T0CS                              00000005
T0IE                              00000005
T0IF                              00000002
T0SE                              00000004
T1CKPS0                           00000004
T1CKPS1                           00000005
T1CON                             00000010
T1OSCEN                           00000003
T2CKPS0                           00000000
T2CKPS1                           00000001
T2CON                             00000012
TMR0                              00000001
TMR0IE                            00000005
TMR0IF                            00000002
TMR1                              0000000E
TMR1CS                            00000001
TMR1H                             0000000F
TMR1IE                            00000000
TMR1IF                            00000000
TMR1L                             0000000E
TMR1ON                            00000000
TMR2                              00000011
TMR2IE                            00000001
TMR2IF                            00000001
TMR2ON                            00000002
TOUTPS0                           00000003
TOUTPS1                           00000004
TOUTPS2                           00000005
TOUTPS3                           00000006
TRISA                             00000085
TRISA0                            00000000
TRISA1                            00000001
TRISA2                            00000002
TRISA3                            00000003
TRISA4                            00000004
TRISA5                            00000005
MPASM 5.84                          MAIN.ASM   5-29-2024  9:33:58         PAGE  8


SYMBOL TABLE
  LABEL                             VALUE 

TRISA6                            00000006
TRISA7                            00000007
TRISB                             00000086
TRISB0                            00000000
TRISB1                            00000001
TRISB2                            00000002
TRISB3                            00000003
TRISB4                            00000004
TRISB5                            00000005
TRISB6                            00000006
TRISB7                            00000007
TRMT                              00000001
TX9                               00000006
TX9D                              00000000
TXEN                              00000005
TXIE                              00000004
TXIF                              00000004
TXREG                             00000019
TXSTA                             00000098
VR0                               00000000
VR1                               00000001
VR2                               00000002
VR3                               00000003
VRCON                             0000009F
VREN                              00000007
VROE                              00000006
VRR                               00000005
W                                 00000000
WR                                00000001
WREN                              00000002
WRERR                             00000003
Z                                 00000002
_BODEN_OFF                        00003FBF
_BODEN_ON                         00003FFF
_BOREN_OFF                        00003FBF
_BOREN_ON                         00003FFF
_CONFIG                           00002007
_CPD_OFF                          00003FFF
_CPD_ON                           00003EFF
_CP_OFF                           00003FFF
_CP_ON                            00001FFF
_DEVID1                           00002006
_ER_OSC_CLKOUT                    00003FFF
_ER_OSC_NOCLKOUT                  00003FFE
_EXTCLK_OSC                       00003FEF
_FOSC_ECIO                        00003FEF
_FOSC_EXTRCCLK                    00003FFF
_FOSC_EXTRCIO                     00003FFE
_FOSC_HS                          00003FEE
_FOSC_INTOSCCLK                   00003FFD
_FOSC_INTOSCIO                    00003FFC
_FOSC_LP                          00003FEC
_FOSC_XT                          00003FED
MPASM 5.84                          MAIN.ASM   5-29-2024  9:33:58         PAGE  9


SYMBOL TABLE
  LABEL                             VALUE 

_HS_OSC                           00003FEE
_IDLOC0                           00002000
_IDLOC1                           00002001
_IDLOC2                           00002002
_IDLOC3                           00002003
_INTOSC_OSC_CLKOUT                00003FFD
_INTOSC_OSC_NOCLKOUT              00003FFC
_INTRC_OSC_CLKOUT                 00003FFD
_INTRC_OSC_NOCLKOUT               00003FFC
_LP_OSC                           00003FEC
_LVP_OFF                          00003F7F
_LVP_ON                           00003FFF
_MCLRE_OFF                        00003FDF
_MCLRE_ON                         00003FFF
_PWRTE_OFF                        00003FFF
_PWRTE_ON                         00003FF7
_RC_OSC_CLKOUT                    00003FFF
_RC_OSC_NOCLKOUT                  00003FFE
_WDTE_OFF                         00003FFB
_WDTE_ON                          00003FFF
_WDT_OFF                          00003FFB
_WDT_ON                           00003FFF
_XT_OSC                           00003FED
__16F628A                         00000001

Errors   :     0
Warnings :    24 reported,     0 suppressed
Messages :     5 reported,     0 suppressed

